; Function Attrs: mustprogress uwtable
define noundef zeroext i1 @_ZN3nix14pathAccessibleERKNSt7__cxx1112basic_stringIcSt11char_traitsIcESaIcEEE(ptr noundef nonnull align 8 dereferenceable(32) %0) local_unnamed_addr #2 personality ptr @__gxx_personality_v0 {
  %2 = invoke noundef zeroext i1 @_ZN3nix10pathExistsERKNSt7__cxx1112basic_stringIcSt11char_traitsIcESaIcEEE(ptr noundef nonnull align 8 dereferenceable(32) %0)
          to label %18 unwind label %3

3:                                                ; preds = %1
  %4 = landingpad { ptr, i32 }
          catch ptr @_ZTIN3nix8SysErrorE
  %5 = extractvalue { ptr, i32 } %4, 1
  %6 = tail call i32 @llvm.eh.typeid.for(ptr nonnull @_ZTIN3nix8SysErrorE) #29
  %7 = icmp eq i32 %5, %6
  br i1 %7, label %8, label %19

8:                                                ; preds = %3
  %9 = extractvalue { ptr, i32 } %4, 0
  %10 = tail call ptr @__cxa_begin_catch(ptr %9) #29
  %11 = getelementptr inbounds i8, ptr %10, i64 376
  %12 = load i32, ptr %11, align 8
  %13 = icmp eq i32 %12, 1
  br i1 %13, label %14, label %15

14:                                               ; preds = %8
  tail call void @__cxa_end_catch()
  br label %18

15:                                               ; preds = %8
  invoke void @__cxa_rethrow() #32
          to label %23 unwind label %16

16:                                               ; preds = %15
  %17 = landingpad { ptr, i32 }
          cleanup
  invoke void @__cxa_end_catch()
          to label %19 unwind label %20

18:                                               ; preds = %1, %14
  %.0 = phi i1 [ false, %14 ], [ %2, %1 ]
  ret i1 %.0

19:                                               ; preds = %16, %3
  %.merged = phi { ptr, i32 } [ %17, %16 ], [ %4, %3 ]
  resume { ptr, i32 } %.merged

20:                                               ; preds = %16
  %21 = landingpad { ptr, i32 }
          catch ptr null
  %22 = extractvalue { ptr, i32 } %21, 0
  tail call void @__clang_call_terminate(ptr %22) #34
  unreachable

23:                                               ; preds = %15
  unreachable
}